; Function Attrs: mustprogress uwtable
define dso_local noundef i64 @_ZN4absl18debugging_internal11VDSOSupport13InitAndGetCPUEPjPvS3_(ptr noundef %0, ptr noundef %1, ptr noundef %2) #0 align 2 {
  %4 = tail call noundef ptr @_ZN4absl18debugging_internal11VDSOSupport4InitEv()
  %5 = load atomic i64, ptr @_ZN4absl18debugging_internal11VDSOSupport10getcpu_fn_E monotonic, align 8
  %.not = icmp eq i64 %5, ptrtoint (ptr @_ZN4absl18debugging_internal11VDSOSupport13InitAndGetCPUEPjPvS3_ to i64)
  br i1 %.not, label %6, label %7, !prof !4

6:                                                ; preds = %3
  tail call void (i32, ptr, i32, ptr, ...) @_ZN4absl16raw_log_internal6RawLogENS_11LogSeverityEPKciS3_z(i32 noundef 3, ptr noundef nonnull getelementptr inbounds nuw (i8, ptr @.str.3, i64 123), i32 noundef 186, ptr noundef nonnull @.str.4, ptr noundef nonnull @.str.7, ptr noundef nonnull @.str.8)
  unreachable

7:                                                ; preds = %3
  %.0.i.i = inttoptr i64 %5 to ptr
  %8 = tail call noundef i64 %.0.i.i(ptr noundef %0, ptr noundef %1, ptr noundef %2)
  ret i64 %8
}